target datalayout = "e-m:e-p270:32:32-p271:32:32-p272:64:64-i64:64-i128:128-f80:128-n8:16:32:64-S128"
target triple = "x86_64-pc-linux-gnu"

%struct.grpc_tls_credentials_options = type <{ %"class.grpc_core::RefCounted", i32, i8, [3 x i8], i32, i32, %"class.grpc_core::RefCountedPtr", i8, [7 x i8], %"class.grpc_core::RefCountedPtr.10", i8, [7 x i8], %"class.std::__cxx11::basic_string", i8, [7 x i8], %"class.std::__cxx11::basic_string", %"class.std::__cxx11::basic_string", %"class.std::__cxx11::basic_string", %"class.std::shared_ptr", i8, [7 x i8] }>
%"class.grpc_core::RefCounted" = type { %"class.grpc_core::PolymorphicRefCount", %"class.grpc_core::RefCount" }
%"class.grpc_core::PolymorphicRefCount" = type { ptr }
%"class.grpc_core::RefCount" = type { %"struct.std::atomic" }
%"struct.std::atomic" = type { %"struct.std::__atomic_base" }
%"struct.std::__atomic_base" = type { i64 }
%"class.grpc_core::RefCountedPtr" = type { ptr }
%"class.grpc_core::RefCountedPtr.10" = type { ptr }
%"class.std::__cxx11::basic_string" = type { %"struct.std::__cxx11::basic_string<char>::_Alloc_hider", i64, %union.anon }
%"struct.std::__cxx11::basic_string<char>::_Alloc_hider" = type { ptr }
%union.anon = type { i64, [8 x i8] }
%"class.std::shared_ptr" = type { %"class.std::__shared_ptr" }
%"class.std::__shared_ptr" = type { ptr, %"class.std::__shared_count" }
%"class.std::__shared_count" = type { ptr }

; Function Attrs: mustprogress nounwind uwtable
define linkonce_odr void @_ZN28grpc_tls_credentials_options23set_send_client_ca_listEb(ptr noundef nonnull align 8 dereferenceable(217) %0, i1 noundef zeroext %1) #9 comdat align 2 {
  %3 = alloca ptr, align 8
  %4 = alloca i8, align 1
  store ptr %0, ptr %3, align 8, !tbaa !28
  %5 = zext i1 %1 to i8
  store i8 %5, ptr %4, align 1, !tbaa !77
  %6 = load ptr, ptr %3, align 8
  %7 = load i8, ptr %4, align 1, !tbaa !77, !range !72, !noundef !73
  %8 = trunc i8 %7 to i1
  %9 = getelementptr inbounds nuw %struct.grpc_tls_credentials_options, ptr %6, i32 0, i32 19
  %10 = zext i1 %8 to i8
  store i8 %10, ptr %9, align 8, !tbaa !57
  ret void
}

; Function Attrs: mustprogress uwtable
define void @grpc_tls_credentials_options_set_send_client_ca_list(ptr noundef %0, i1 noundef zeroext %1) #4 {
  %3 = alloca ptr, align 8
  %4 = alloca i8, align 1
  store ptr %0, ptr %3, align 8, !tbaa !28
  %5 = zext i1 %1 to i8
  store i8 %5, ptr %4, align 1, !tbaa !77
  %6 = load ptr, ptr %3, align 8, !tbaa !28
  %7 = icmp eq ptr %6, null
  br i1 %7, label %8, label %9

8:                                                ; preds = %2
  br label %13

9:                                                ; preds = %2
  %10 = load ptr, ptr %3, align 8, !tbaa !28
  %11 = load i8, ptr %4, align 1, !tbaa !77, !range !72, !noundef !73
  %12 = trunc i8 %11 to i1
  call void @_ZN28grpc_tls_credentials_options23set_send_client_ca_listEb(ptr noundef nonnull align 8 dereferenceable(217) %10, i1 noundef zeroext %12)
  br label %13

13:                                               ; preds = %9, %8
  ret void
}