; Function Attrs: mustprogress nofree norecurse nosync nounwind willreturn memory(argmem: write) uwtable
define void @grpc_tls_credentials_options_set_send_client_ca_list(ptr noundef writeonly %0, i1 noundef zeroext %1) local_unnamed_addr #15 {
  %3 = icmp eq ptr %0, null
  br i1 %3, label %7, label %4

4:                                                ; preds = %2
  %5 = zext i1 %1 to i8
  %6 = getelementptr inbounds nuw i8, ptr %0, i64 216
  store i8 %5, ptr %6, align 8, !tbaa !72
  br label %7

7:                                                ; preds = %2, %4
  ret void
}